; Function Attrs: mustprogress nofree norecurse nosync nounwind memory(readwrite, inaccessiblemem: none) uwtable
define internal fastcc void @_ZN6icu_7712_GLOBAL__N_111MixedBlocks6extendItEEvPKT_iii(ptr noundef nonnull readonly align 8 captures(none) dereferenceable(28) %0, ptr noundef readonly captures(none) %1, i32 noundef range(i32 -131012, 132097) %2, i32 noundef %3, i32 noundef %4) unnamed_addr #11 align 2 {
  %6 = getelementptr inbounds nuw i8, ptr %0, i64 24
  %7 = load i32, ptr %6, align 8, !tbaa !62
  %8 = sub nsw i32 %3, %7
  %.not = icmp slt i32 %8, %2
  %9 = add nsw i32 %8, 1
  %.0 = select i1 %.not, i32 %2, i32 %9
  %10 = sub nsw i32 %4, %7
  %.not1726 = icmp sgt i32 %.0, %10
  br i1 %.not1726, label %._crit_edge, label %.lr.ph

.lr.ph:                                           ; preds = %5
  %11 = getelementptr inbounds nuw i8, ptr %0, i64 16
  %12 = getelementptr inbounds nuw i8, ptr %0, i64 12
  %13 = load ptr, ptr %0, align 8, !tbaa !58
  %14 = getelementptr inbounds nuw i8, ptr %0, i64 20
  br label %15

._crit_edge:                                      ; preds = %_ZN6icu_7712_GLOBAL__N_111MixedBlocks8addEntryItEEvPKT_iji.exit, %5
  ret void

15:                                               ; preds = %.lr.ph, %_ZN6icu_7712_GLOBAL__N_111MixedBlocks8addEntryItEEvPKT_iji.exit
  %.127 = phi i32 [ %.0, %.lr.ph ], [ %17, %_ZN6icu_7712_GLOBAL__N_111MixedBlocks8addEntryItEEvPKT_iji.exit ]
  %.val = load i32, ptr %6, align 8, !tbaa !62
  %.fr46.i.i = freeze i32 %.val
  %16 = add nsw i32 %.fr46.i.i, %.127
  %17 = add i32 %.127, 1
  %18 = sext i32 %.127 to i64
  %19 = getelementptr inbounds i16, ptr %1, i64 %18
  %20 = load i16, ptr %19, align 2, !tbaa !33
  %21 = zext i16 %20 to i32
  %22 = sext i32 %17 to i64
  %23 = sext i32 %16 to i64
  br label %24

24:                                               ; preds = %24, %15
  %indvars.iv.i = phi i64 [ %indvars.iv.next.i, %24 ], [ %22, %15 ]
  %.0.i = phi i32 [ %29, %24 ], [ %21, %15 ]
  %25 = mul i32 %.0.i, 37
  %indvars.iv.next.i = add nsw i64 %indvars.iv.i, 1
  %26 = getelementptr inbounds i16, ptr %1, i64 %indvars.iv.i
  %27 = load i16, ptr %26, align 2, !tbaa !33
  %28 = zext i16 %27 to i32
  %29 = add i32 %25, %28
  %30 = icmp slt i64 %indvars.iv.next.i, %23
  br i1 %30, label %24, label %_ZNK6icu_7712_GLOBAL__N_111MixedBlocks12makeHashCodeItEEjPKT_i.exit, !llvm.loop !106

_ZNK6icu_7712_GLOBAL__N_111MixedBlocks12makeHashCodeItEEjPKT_i.exit: ; preds = %24
  %31 = load i32, ptr %11, align 8, !tbaa !55
  %32 = shl i32 %29, %31
  %33 = load i32, ptr %12, align 4, !tbaa !61
  %34 = add nsw i32 %33, -1
  %35 = urem i32 %29, %34
  %36 = add nuw i32 %35, 1
  %37 = sext i32 %36 to i64
  %38 = getelementptr inbounds i32, ptr %13, i64 %37
  %39 = load i32, ptr %38, align 4, !tbaa !25
  %40 = icmp eq i32 %39, 0
  br i1 %40, label %._crit_edge.i.i, label %.lr.ph.i.i

.lr.ph.i.i:                                       ; preds = %_ZNK6icu_7712_GLOBAL__N_111MixedBlocks12makeHashCodeItEEjPKT_i.exit
  %41 = load i32, ptr %14, align 4, !tbaa !57
  %42 = xor i32 %41, -1
  %43 = icmp sgt i32 %.fr46.i.i, 0
  br i1 %43, label %.lr.ph.split.us.i.i, label %.lr.ph.split.i.i

.lr.ph.split.us.i.i:                              ; preds = %.lr.ph.i.i, %_ZN6icu_7712_GLOBAL__N_111equalBlocksIttEEbPKT_PKT0_i.exit.thread27.us.i.i
  %44 = phi i32 [ %58, %_ZN6icu_7712_GLOBAL__N_111equalBlocksIttEEbPKT_PKT0_i.exit.thread27.us.i.i ], [ %39, %.lr.ph.i.i ]
  %.02237.us.i.i = phi i32 [ %55, %_ZN6icu_7712_GLOBAL__N_111equalBlocksIttEEbPKT_PKT0_i.exit.thread27.us.i.i ], [ %36, %.lr.ph.i.i ]
  %45 = and i32 %44, %42
  %46 = icmp eq i32 %45, %32
  br i1 %46, label %.lr.ph.i.preheader.us.i.i, label %_ZN6icu_7712_GLOBAL__N_111equalBlocksIttEEbPKT_PKT0_i.exit.thread27.us.i.i

.lr.ph.i.preheader.us.i.i:                        ; preds = %.lr.ph.split.us.i.i
  %47 = and i32 %44, %41
  %48 = add i32 %47, -1
  %49 = sext i32 %48 to i64
  %50 = getelementptr inbounds i16, ptr %1, i64 %49
  br label %.lr.ph.i.us.i.i

.lr.ph.i.us.i.i:                                  ; preds = %60, %.lr.ph.i.preheader.us.i.i
  %.010.i.us.i.i = phi i32 [ %63, %60 ], [ %.fr46.i.i, %.lr.ph.i.preheader.us.i.i ]
  %.069.i.us.i.i = phi ptr [ %62, %60 ], [ %19, %.lr.ph.i.preheader.us.i.i ]
  %.078.i.us.i.i = phi ptr [ %61, %60 ], [ %50, %.lr.ph.i.preheader.us.i.i ]
  %51 = load i16, ptr %.078.i.us.i.i, align 2, !tbaa !33
  %52 = load i16, ptr %.069.i.us.i.i, align 2, !tbaa !33
  %53 = icmp eq i16 %51, %52
  br i1 %53, label %60, label %_ZN6icu_7712_GLOBAL__N_111equalBlocksIttEEbPKT_PKT0_i.exit.thread27.us.i.i

_ZN6icu_7712_GLOBAL__N_111equalBlocksIttEEbPKT_PKT0_i.exit.thread27.us.i.i: ; preds = %.lr.ph.i.us.i.i, %.lr.ph.split.us.i.i
  %54 = add nsw i32 %.02237.us.i.i, %36
  %55 = srem i32 %54, %33
  %56 = sext i32 %55 to i64
  %57 = getelementptr inbounds i32, ptr %13, i64 %56
  %58 = load i32, ptr %57, align 4, !tbaa !25
  %59 = icmp eq i32 %58, 0
  br i1 %59, label %._crit_edge.i.i, label %.lr.ph.split.us.i.i, !llvm.loop !107

60:                                               ; preds = %.lr.ph.i.us.i.i
  %61 = getelementptr inbounds nuw i8, ptr %.078.i.us.i.i, i64 2
  %62 = getelementptr inbounds nuw i8, ptr %.069.i.us.i.i, i64 2
  %63 = add nsw i32 %.010.i.us.i.i, -1
  %64 = icmp sgt i32 %.010.i.us.i.i, 1
  br i1 %64, label %.lr.ph.i.us.i.i, label %_ZNK6icu_7712_GLOBAL__N_111MixedBlocks9findEntryIttEEiPKT_PKT0_ij.exit.i, !llvm.loop !86

.lr.ph.split.i.i:                                 ; preds = %.lr.ph.i.i
  %65 = icmp eq i32 %.fr46.i.i, 0
  br i1 %65, label %.lr.ph.split.split.us.i.i, label %.lr.ph.split.split.i.i

.lr.ph.split.split.us.i.i:                        ; preds = %.lr.ph.split.i.i, %_ZN6icu_7712_GLOBAL__N_111equalBlocksIttEEbPKT_PKT0_i.exit.thread27.us40.i.i
  %66 = phi i32 [ %73, %_ZN6icu_7712_GLOBAL__N_111equalBlocksIttEEbPKT_PKT0_i.exit.thread27.us40.i.i ], [ %39, %.lr.ph.split.i.i ]
  %.02237.us39.i.i = phi i32 [ %70, %_ZN6icu_7712_GLOBAL__N_111equalBlocksIttEEbPKT_PKT0_i.exit.thread27.us40.i.i ], [ %36, %.lr.ph.split.i.i ]
  %67 = and i32 %66, %42
  %68 = icmp eq i32 %67, %32
  br i1 %68, label %_ZNK6icu_7712_GLOBAL__N_111MixedBlocks9findEntryIttEEiPKT_PKT0_ij.exit.i, label %_ZN6icu_7712_GLOBAL__N_111equalBlocksIttEEbPKT_PKT0_i.exit.thread27.us40.i.i

_ZN6icu_7712_GLOBAL__N_111equalBlocksIttEEbPKT_PKT0_i.exit.thread27.us40.i.i: ; preds = %.lr.ph.split.split.us.i.i
  %69 = add nsw i32 %.02237.us39.i.i, %36
  %70 = srem i32 %69, %33
  %71 = sext i32 %70 to i64
  %72 = getelementptr inbounds i32, ptr %13, i64 %71
  %73 = load i32, ptr %72, align 4, !tbaa !25
  %74 = icmp eq i32 %73, 0
  br i1 %74, label %._crit_edge.i.i, label %.lr.ph.split.split.us.i.i, !llvm.loop !107

._crit_edge.i.i:                                  ; preds = %.lr.ph.split.split.i.i, %_ZN6icu_7712_GLOBAL__N_111equalBlocksIttEEbPKT_PKT0_i.exit.thread27.us40.i.i, %_ZN6icu_7712_GLOBAL__N_111equalBlocksIttEEbPKT_PKT0_i.exit.thread27.us.i.i, %_ZNK6icu_7712_GLOBAL__N_111MixedBlocks12makeHashCodeItEEjPKT_i.exit
  %.022.lcssa.i.i = phi i32 [ %36, %_ZNK6icu_7712_GLOBAL__N_111MixedBlocks12makeHashCodeItEEjPKT_i.exit ], [ %55, %_ZN6icu_7712_GLOBAL__N_111equalBlocksIttEEbPKT_PKT0_i.exit.thread27.us.i.i ], [ %70, %_ZN6icu_7712_GLOBAL__N_111equalBlocksIttEEbPKT_PKT0_i.exit.thread27.us40.i.i ], [ %77, %.lr.ph.split.split.i.i ]
  %75 = xor i32 %.022.lcssa.i.i, -1
  br label %_ZNK6icu_7712_GLOBAL__N_111MixedBlocks9findEntryIttEEiPKT_PKT0_ij.exit.i

.lr.ph.split.split.i.i:                           ; preds = %.lr.ph.split.i.i, %.lr.ph.split.split.i.i
  %.02237.i.i = phi i32 [ %77, %.lr.ph.split.split.i.i ], [ %36, %.lr.ph.split.i.i ]
  %76 = add nsw i32 %.02237.i.i, %36
  %77 = srem i32 %76, %33
  %78 = sext i32 %77 to i64
  %79 = getelementptr inbounds i32, ptr %13, i64 %78
  %80 = load i32, ptr %79, align 4, !tbaa !25
  %81 = icmp eq i32 %80, 0
  br i1 %81, label %._crit_edge.i.i, label %.lr.ph.split.split.i.i, !llvm.loop !107

_ZNK6icu_7712_GLOBAL__N_111MixedBlocks9findEntryIttEEiPKT_PKT0_ij.exit.i: ; preds = %.lr.ph.split.split.us.i.i, %60, %._crit_edge.i.i
  %.1.ph.i.i = phi i32 [ %75, %._crit_edge.i.i ], [ %.02237.us.i.i, %60 ], [ %.02237.us39.i.i, %.lr.ph.split.split.us.i.i ]
  %82 = icmp slt i32 %.1.ph.i.i, 0
  br i1 %82, label %83, label %_ZN6icu_7712_GLOBAL__N_111MixedBlocks8addEntryItEEvPKT_iji.exit

83:                                               ; preds = %_ZNK6icu_7712_GLOBAL__N_111MixedBlocks9findEntryIttEEiPKT_PKT0_ij.exit.i
  %84 = or i32 %32, %17
  %85 = xor i32 %.1.ph.i.i, -1
  %86 = zext nneg i32 %85 to i64
  %87 = getelementptr inbounds nuw i32, ptr %13, i64 %86
  store i32 %84, ptr %87, align 4, !tbaa !25
  br label %_ZN6icu_7712_GLOBAL__N_111MixedBlocks8addEntryItEEvPKT_iji.exit

_ZN6icu_7712_GLOBAL__N_111MixedBlocks8addEntryItEEvPKT_iji.exit: ; preds = %_ZNK6icu_7712_GLOBAL__N_111MixedBlocks9findEntryIttEEiPKT_PKT0_ij.exit.i, %83
  %.not17 = icmp sgt i32 %17, %10
  br i1 %.not17, label %._crit_edge, label %15, !llvm.loop !108
}